target datalayout = "e-m:e-p270:32:32-p271:32:32-p272:64:64-i64:64-i128:128-f80:128-n8:16:32:64-S128"
target triple = "x86_64-pc-linux-gnu"

; Function Attrs: nounwind uwtable
define internal i32 @get_v_length(i64 noundef %0) #0 {
  %2 = alloca i64, align 8
  %3 = alloca i32, align 4
  store i64 %0, ptr %2, align 8, !tbaa !95
  call void @llvm.lifetime.start.p0(i64 4, ptr %3) #12
  store i32 1, ptr %3, align 4, !tbaa !44
  br label %4

4:                                                ; preds = %8, %1
  %5 = load i64, ptr %2, align 8, !tbaa !95
  %6 = lshr i64 %5, 7
  store i64 %6, ptr %2, align 8, !tbaa !95
  %7 = icmp ne i64 %6, 0
  br i1 %7, label %8, label %11

8:                                                ; preds = %4
  %9 = load i32, ptr %3, align 4, !tbaa !44
  %10 = add nsw i32 %9, 1
  store i32 %10, ptr %3, align 4, !tbaa !44
  br label %4, !llvm.loop !192

11:                                               ; preds = %4
  %12 = load i32, ptr %3, align 4, !tbaa !44
  call void @llvm.lifetime.end.p0(i64 4, ptr %3) #12
  ret i32 %12
}

; Function Attrs: nounwind uwtable
define internal void @put_v(ptr noundef %0, i64 noundef %1) #0 {
  %3 = alloca ptr, align 8
  %4 = alloca i64, align 8
  %5 = alloca i32, align 4
  store ptr %0, ptr %3, align 8, !tbaa !29
  store i64 %1, ptr %4, align 8, !tbaa !95
  call void @llvm.lifetime.start.p0(i64 4, ptr %5) #12
  %6 = load i64, ptr %4, align 8, !tbaa !95
  %7 = call i32 @get_v_length(i64 noundef %6)
  store i32 %7, ptr %5, align 4, !tbaa !44
  br label %8

8:                                                ; preds = %12, %2
  %9 = load i32, ptr %5, align 4, !tbaa !44
  %10 = add nsw i32 %9, -1
  store i32 %10, ptr %5, align 4, !tbaa !44
  %11 = icmp sgt i32 %10, 0
  br i1 %11, label %12, label %22

12:                                               ; preds = %8
  %13 = load ptr, ptr %3, align 8, !tbaa !29
  %14 = load i64, ptr %4, align 8, !tbaa !95
  %15 = load i32, ptr %5, align 4, !tbaa !44
  %16 = mul nsw i32 7, %15
  %17 = zext i32 %16 to i64
  %18 = lshr i64 %14, %17
  %19 = trunc i64 %18 to i8
  %20 = zext i8 %19 to i32
  %21 = or i32 128, %20
  call void @avio_w8(ptr noundef %13, i32 noundef %21)
  br label %8, !llvm.loop !191

22:                                               ; preds = %8
  %23 = load ptr, ptr %3, align 8, !tbaa !29
  %24 = load i64, ptr %4, align 8, !tbaa !95
  %25 = and i64 %24, 127
  %26 = trunc i64 %25 to i32
  call void @avio_w8(ptr noundef %23, i32 noundef %26)
  call void @llvm.lifetime.end.p0(i64 4, ptr %5) #12
  ret void
}

; Function Attrs: nounwind uwtable
define internal void @put_packet(ptr noundef %0, ptr noundef %1, ptr noundef %2, i64 noundef %3) #0 {
  %5 = alloca ptr, align 8
  %6 = alloca ptr, align 8
  %7 = alloca ptr, align 8
  %8 = alloca i64, align 8
  %9 = alloca ptr, align 8
  %10 = alloca i32, align 4
  %11 = alloca i32, align 4
  store ptr %0, ptr %5, align 8, !tbaa !26
  store ptr %1, ptr %6, align 8, !tbaa !29
  store ptr %2, ptr %7, align 8, !tbaa !29
  store i64 %3, ptr %8, align 8, !tbaa !95
  call void @llvm.lifetime.start.p0(i64 8, ptr %9) #12
  store ptr null, ptr %9, align 8, !tbaa !89
  call void @llvm.lifetime.start.p0(i64 4, ptr %10) #12
  %12 = load ptr, ptr %7, align 8, !tbaa !29
  %13 = call i32 @avio_get_dyn_buf(ptr noundef %12, ptr noundef %9)
  store i32 %13, ptr %10, align 4, !tbaa !44
  call void @llvm.lifetime.start.p0(i64 4, ptr %11) #12
  %14 = load i32, ptr %10, align 4, !tbaa !44
  %15 = add nsw i32 %14, 4
  store i32 %15, ptr %11, align 4, !tbaa !44
  %16 = load i32, ptr %11, align 4, !tbaa !44
  %17 = icmp sgt i32 %16, 4096
  br i1 %17, label %18, label %20

18:                                               ; preds = %4
  %19 = load ptr, ptr %6, align 8, !tbaa !29
  call void @ffio_init_checksum(ptr noundef %19, ptr noundef @ff_crc04C11DB7_update, i64 noundef 0)
  br label %20

20:                                               ; preds = %18, %4
  %21 = load ptr, ptr %6, align 8, !tbaa !29
  %22 = load i64, ptr %8, align 8, !tbaa !95
  call void @avio_wb64(ptr noundef %21, i64 noundef %22)
  %23 = load ptr, ptr %6, align 8, !tbaa !29
  %24 = load i32, ptr %11, align 4, !tbaa !44
  %25 = sext i32 %24 to i64
  call void @put_v(ptr noundef %23, i64 noundef %25)
  %26 = load i32, ptr %11, align 4, !tbaa !44
  %27 = icmp sgt i32 %26, 4096
  br i1 %27, label %28, label %33

28:                                               ; preds = %20
  %29 = load ptr, ptr %6, align 8, !tbaa !29
  %30 = load ptr, ptr %6, align 8, !tbaa !29
  %31 = call i64 @ffio_get_checksum(ptr noundef %30)
  %32 = trunc i64 %31 to i32
  call void @avio_wl32(ptr noundef %29, i32 noundef %32)
  br label %33

33:                                               ; preds = %28, %20
  %34 = load ptr, ptr %6, align 8, !tbaa !29
  call void @ffio_init_checksum(ptr noundef %34, ptr noundef @ff_crc04C11DB7_update, i64 noundef 0)
  %35 = load ptr, ptr %6, align 8, !tbaa !29
  %36 = load ptr, ptr %9, align 8, !tbaa !89
  %37 = load i32, ptr %10, align 4, !tbaa !44
  call void @avio_write(ptr noundef %35, ptr noundef %36, i32 noundef %37)
  %38 = load ptr, ptr %6, align 8, !tbaa !29
  %39 = load ptr, ptr %6, align 8, !tbaa !29
  %40 = call i64 @ffio_get_checksum(ptr noundef %39)
  %41 = trunc i64 %40 to i32
  call void @avio_wl32(ptr noundef %38, i32 noundef %41)
  %42 = load ptr, ptr %7, align 8, !tbaa !29
  call void @ffio_reset_dyn_buf(ptr noundef %42)
  call void @llvm.lifetime.end.p0(i64 4, ptr %11) #12
  call void @llvm.lifetime.end.p0(i64 4, ptr %10) #12
  call void @llvm.lifetime.end.p0(i64 8, ptr %9) #12
  ret void
}