; Function Attrs: nounwind uwtable
define internal fastcc void @put_packet(ptr noundef %0, ptr noundef %1, i64 noundef range(i64 5641228474469759608, 5645505568151168591) %2) unnamed_addr #0 {
  %4 = alloca ptr, align 8
  call void @llvm.lifetime.start.p0(i64 8, ptr nonnull %4) #12
  store ptr null, ptr %4, align 8, !tbaa !79
  %5 = call i32 @avio_get_dyn_buf(ptr noundef %1, ptr noundef nonnull %4) #12
  %6 = add nsw i32 %5, 4
  %7 = icmp sgt i32 %5, 4092
  br i1 %7, label %8, label %.critedge

8:                                                ; preds = %3
  call void @ffio_init_checksum(ptr noundef %0, ptr noundef nonnull @ff_crc04C11DB7_update, i64 noundef 0) #12
  call void @avio_wb64(ptr noundef %0, i64 noundef %2) #12
  %9 = zext nneg i32 %6 to i64
  br label %.lr.ph.i.i

.lr.ph.i.i:                                       ; preds = %8, %.lr.ph.i.i
  %.07.i.i = phi i32 [ %11, %.lr.ph.i.i ], [ 1, %8 ]
  %.036.i.i = phi i64 [ %10, %.lr.ph.i.i ], [ %9, %8 ]
  %10 = lshr i64 %.036.i.i, 7
  %11 = add nuw nsw i32 %.07.i.i, 1
  %.not.i.i = icmp samesign ult i64 %.036.i.i, 16384
  br i1 %.not.i.i, label %.lr.ph.preheader.i, label %.lr.ph.i.i, !llvm.loop !129

.lr.ph.preheader.i:                               ; preds = %.lr.ph.i.i
  %12 = zext nneg i32 %11 to i64
  br label %.lr.ph.i

.lr.ph.i:                                         ; preds = %.lr.ph.i, %.lr.ph.preheader.i
  %indvars.iv.i = phi i64 [ %12, %.lr.ph.preheader.i ], [ %indvars.iv.next.i, %.lr.ph.i ]
  %indvars.iv.next.i = add nsw i64 %indvars.iv.i, -1
  %13 = mul nsw i64 %indvars.iv.next.i, 7
  %14 = lshr i64 %9, %13
  %15 = trunc nuw nsw i64 %14 to i32
  %16 = and i32 %15, 127
  %17 = or disjoint i32 %16, 128
  call void @avio_w8(ptr noundef %0, i32 noundef %17) #12
  %18 = icmp samesign ugt i64 %indvars.iv.i, 2
  br i1 %18, label %.lr.ph.i, label %put_v.exit, !llvm.loop !130

put_v.exit:                                       ; preds = %.lr.ph.i
  %19 = and i32 %6, 127
  call void @avio_w8(ptr noundef %0, i32 noundef %19) #12
  %20 = call i64 @ffio_get_checksum(ptr noundef %0) #12
  %21 = trunc i64 %20 to i32
  call void @avio_wl32(ptr noundef %0, i32 noundef %21) #12
  br label %33

.critedge:                                        ; preds = %3
  call void @avio_wb64(ptr noundef %0, i64 noundef %2) #12
  %22 = sext i32 %6 to i64
  %.not5.i.i16 = icmp ult i32 %6, 128
  br i1 %.not5.i.i16, label %put_v.exit25, label %.lr.ph.i.i17

.lr.ph.i.i17:                                     ; preds = %.critedge, %.lr.ph.i.i17
  %.07.i.i18 = phi i32 [ %24, %.lr.ph.i.i17 ], [ 1, %.critedge ]
  %.036.i.i19 = phi i64 [ %23, %.lr.ph.i.i17 ], [ %22, %.critedge ]
  %23 = lshr i64 %.036.i.i19, 7
  %24 = add nuw nsw i32 %.07.i.i18, 1
  %.not.i.i20 = icmp ult i64 %.036.i.i19, 16384
  br i1 %.not.i.i20, label %.lr.ph.preheader.i21, label %.lr.ph.i.i17, !llvm.loop !129

.lr.ph.preheader.i21:                             ; preds = %.lr.ph.i.i17
  %25 = zext nneg i32 %24 to i64
  br label %.lr.ph.i22

.lr.ph.i22:                                       ; preds = %.lr.ph.i22, %.lr.ph.preheader.i21
  %indvars.iv.i23 = phi i64 [ %25, %.lr.ph.preheader.i21 ], [ %indvars.iv.next.i24, %.lr.ph.i22 ]
  %indvars.iv.next.i24 = add nsw i64 %indvars.iv.i23, -1
  %26 = mul nsw i64 %indvars.iv.next.i24, 7
  %27 = lshr i64 %22, %26
  %28 = trunc i64 %27 to i32
  %29 = and i32 %28, 127
  %30 = or disjoint i32 %29, 128
  call void @avio_w8(ptr noundef %0, i32 noundef %30) #12
  %31 = icmp samesign ugt i64 %indvars.iv.i23, 2
  br i1 %31, label %.lr.ph.i22, label %put_v.exit25, !llvm.loop !130

put_v.exit25:                                     ; preds = %.lr.ph.i22, %.critedge
  %32 = and i32 %6, 127
  call void @avio_w8(ptr noundef %0, i32 noundef %32) #12
  br label %33

33:                                               ; preds = %put_v.exit25, %put_v.exit
  call void @ffio_init_checksum(ptr noundef %0, ptr noundef nonnull @ff_crc04C11DB7_update, i64 noundef 0) #12
  %34 = load ptr, ptr %4, align 8, !tbaa !79
  call void @avio_write(ptr noundef %0, ptr noundef %34, i32 noundef %5) #12
  %35 = call i64 @ffio_get_checksum(ptr noundef %0) #12
  %36 = trunc i64 %35 to i32
  call void @avio_wl32(ptr noundef %0, i32 noundef %36) #12
  call void @ffio_reset_dyn_buf(ptr noundef %1) #12
  call void @llvm.lifetime.end.p0(i64 8, ptr nonnull %4) #12
  ret void
}